; Function Attrs: mustprogress nofree norecurse nosync nounwind willreturn memory(argmem: readwrite) uwtable
define void @_ZNK7openvdb5v11_02io4File7endNameEv(ptr noalias nocapture writeonly sret(%"class.openvdb::v11_0::io::File::NameIterator") align 8 %agg.result, ptr nocapture noundef nonnull readonly align 8 dereferenceable(80) %this) local_unnamed_addr #15 align 2 {
entry:
  %mImpl.i = getelementptr inbounds i8, ptr %this, i64 72
  %0 = load ptr, ptr %mImpl.i, align 8
  %add.ptr.i.i = getelementptr inbounds i8, ptr %0, i64 88
  %1 = ptrtoint ptr %add.ptr.i.i to i64
  store i64 %1, ptr %agg.result, align 8
  ret void
}